(lp1
S'MD_813950122337_000'
p2
aS'MD_741268017829_000'
p3
aS'MD_575712591114_000'
p4
aS'MD_292949498741_000'
p5
aS'MD_419292846011_000'
p6
aS'MD_946645502910_000'
p7
aS'MD_713981117562_000'
p8
aS'MD_142845646027_000'
p9
aS'MD_141108437035_000'
p10
aS'MD_836679399691_000'
p11
aS'MD_425575206649_000'
p12
aS'MD_670310076494_000'
p13
aS'MD_999350538762_000'
p14
aS'MD_593852092590_000'
p15
aS'MD_801449821381_000'
p16
aS'MD_570977166787_000'
p17
aS'MD_343815363090_000'
p18
aS'MD_365621872219_000'
p19
aS'MD_593237120664_000'
p20
aS'MD_772969383801_000'
p21
aS'MD_610422475344_000'
p22
aS'MD_624551252234_000'
p23
aS'MD_764204085905_000'
p24
aS'MD_345039159472_000'
p25
aS'MD_251585191796_000'
p26
aS'MD_767196838012_000'
p27
aS'MD_372397724749_000'
p28
aS'MD_380851959348_000'
p29
aS'MD_537792625235_000'
p30
aS'MD_360423485221_000'
p31
aS'MD_565362814583_000'
p32
aS'MD_718998505090_000'
p33
aS'MD_612456986933_000'
p34
aS'MD_725457933098_000'
p35
aS'MD_648996433222_000'
p36
aS'MD_951043502748_000'
p37
aS'MD_347581371934_000'
p38
aS'MD_237529503914_000'
p39
aS'MD_642997805654_000'
p40
aS'MD_517832401778_000'
p41
aS'MD_988025202193_000'
p42
aS'MD_454013723778_000'
p43
aS'MD_861734830265_000'
p44
aS'MD_402218410586_000'
p45
aS'MD_267906190435_000'
p46
aS'MD_858465384069_000'
p47
aS'MD_968394011243_000'
p48
aS'MD_205543831509_000'
p49
aS'MD_911441728245_000'
p50
aS'MD_595177390622_000'
p51
aS'MD_977935407291_000'
p52
aS'MD_298114723960_000'
p53
aS'MD_961395244651_000'
p54
aS'MD_588168155972_000'
p55
aS'MD_317376636347_000'
p56
aS'MD_466662588907_000'
p57
aS'MD_257634066284_000'
p58
aS'MD_450747769297_000'
p59
aS'MD_861698945844_000'
p60
aS'MD_292238745521_000'
p61
aS'MD_246450622854_000'
p62
aS'MD_722219760131_000'
p63
aS'MD_901784615673_000'
p64
aS'MD_235889285592_000'
p65
aS'MD_861256789481_000'
p66
aS'MD_341896976678_000'
p67
aS'MD_252390818975_000'
p68
aS'MD_622283627749_000'
p69
aS'MD_117707411049_000'
p70
aS'MD_200120900740_000'
p71
aS'MD_490856039436_000'
p72
aS'MD_453749644864_000'
p73
aS'MD_511686819264_000'
p74
aS'MD_299609640474_000'
p75
aS'MD_517490621324_000'
p76
aS'MD_801139718919_000'
p77
aS'MD_298336732718_000'
p78
aS'MD_734087795932_000'
p79
aS'MD_394826754245_000'
p80
aS'MD_632664957188_000'
p81
aS'MD_628981690930_000'
p82
aS'MD_186437818093_000'
p83
aS'MD_997313283797_000'
p84
aS'MD_360347079855_000'
p85
aS'MD_403065148031_000'
p86
aS'MD_729455912491_000'
p87
aS'MD_925400790973_000'
p88
aS'MD_643395450474_000'
p89
aS'MD_365545783875_000'
p90
aS'MD_245096002299_000'
p91
aS'MD_489681302003_000'
p92
aS'MD_974043717591_000'
p93
aS'MD_764414414664_000'
p94
aS'MD_247310168809_000'
p95
aS'MD_314426328648_000'
p96
aS'MD_826125923576_000'
p97
aS'MD_520377751614_000'
p98
aS'MD_523831548126_000'
p99
aS'MD_750513900023_000'
p100
aS'MD_813213070651_000'
p101
aS'MD_871173682349_000'
p102
aS'MD_996070495700_000'
p103
aS'MD_369621448289_000'
p104
aS'MD_941543466808_000'
p105
aS'MD_681323463882_000'
p106
aS'MD_915635525109_000'
p107
aS'MD_417280613977_000'
p108
aS'MD_127454427402_000'
p109
aS'MD_504254589365_000'
p110
aS'MD_790649061580_000'
p111
aS'MD_234205601843_000'
p112
aS'MD_769111827179_000'
p113
aS'MD_882321737820_000'
p114
aS'MD_946244604820_000'
p115
aS'MD_117634554276_000'
p116
aS'MD_906845243054_000'
p117
aS'MD_800011712110_000'
p118
aS'MD_442460138251_000'
p119
aS'MD_351743167563_000'
p120
aS'MD_165395423467_000'
p121
aS'MD_246189794053_000'
p122
aS'MD_647426962935_000'
p123
aS'MD_904726632454_000'
p124
aS'MD_259339281926_000'
p125
aS'MD_407726481280_000'
p126
aS'MD_229139479622_000'
p127
aS'MD_358252276484_000'
p128
aS'MD_629533869562_000'
p129
aS'MD_801194698134_000'
p130
aS'MD_676055641656_000'
p131
aS'MD_462531789218_000'
p132
aS'MD_192124096233_000'
p133
aS'MD_410286336655_000'
p134
aS'MD_575847266239_000'
p135
aS'MD_792062420711_000'
p136
aS'MD_232595375075_000'
p137
aS'MD_775555088183_000'
p138
aS'MD_923351647566_000'
p139
aS'MD_708308864328_000'
p140
aS'MD_715239864661_000'
p141
aS'MD_365019967147_000'
p142
aS'MD_460011559167_000'
p143
aS'MD_259914501189_000'
p144
aS'MD_877470779986_000'
p145
aS'MD_493512532936_000'
p146
aS'MD_306256213334_000'
p147
aS'MD_806547212620_000'
p148
aS'MD_346706899811_000'
p149
aS'MD_547148282579_000'
p150
aS'MD_727289950434_000'
p151
aS'MD_517268010123_000'
p152
aS'MD_987829270248_000'
p153
aS'MD_733045643146_000'
p154
aS'MD_778080418637_000'
p155
aS'MD_852674424331_000'
p156
aS'MD_124257845292_000'
p157
aS'MD_888881074714_000'
p158
aS'MD_372829463385_000'
p159
aS'MD_269925602316_000'
p160
aS'MD_276739669849_000'
p161
aS'MD_584183946334_000'
p162
aS'MD_560530678248_000'
p163
aS'MD_941898026206_000'
p164
aS'MD_667973970895_000'
p165
aS'MD_357919734959_000'
p166
aS'MD_203599422448_000'
p167
aS'MD_889544050684_000'
p168
aS'MD_204259588621_000'
p169
aS'MD_578134464527_000'
p170
aS'MD_109385110290_000'
p171
aS'MD_905229361175_000'
p172
aS'MD_356555068877_000'
p173
aS'MD_909290540367_000'
p174
aS'MD_770880506966_000'
p175
aS'MD_133404433394_000'
p176
aS'MD_674697725510_000'
p177
aS'MD_212631926709_000'
p178
aS'MD_561580997391_000'
p179
aS'MD_279135842335_000'
p180
aS'MD_408144702319_000'
p181
aS'MD_655152563594_000'
p182
aS'MD_970506485011_000'
p183
aS'MD_477995364548_000'
p184
aS'MD_140206025071_000'
p185
aS'MD_670100632384_000'
p186
aS'MD_562787365886_000'
p187
aS'MD_928538985538_000'
p188
aS'MD_508999686011_000'
p189
aS'MD_706527857766_000'
p190
aS'MD_102821906012_000'
p191
aS'MD_184342496385_000'
p192
aS'MD_223825179295_000'
p193
aS'MD_951677851677_000'
p194
aS'MD_897256927670_000'
p195
aS'MD_518652314947_000'
p196
aS'MD_488949824500_000'
p197
aS'MD_637765294275_000'
p198
aS'MD_829008491314_000'
p199
aS'MD_722508695285_000'
p200
aS'MD_313710667271_000'
p201
aS'MD_697644376273_000'
p202
aS'MD_574298590683_000'
p203
aS'MD_955123202606_000'
p204
aS'MD_249725823778_000'
p205
aS'MD_207926590137_000'
p206
aS'MD_359299617034_000'
p207
aS'MD_554643558135_000'
p208
aS'MD_194068999527_000'
p209
aS'MD_946311813727_000'
p210
aS'MD_490013949075_000'
p211
aS'MD_536968556247_000'
p212
aS'MD_133255756296_000'
p213
aS'MD_466029791816_000'
p214
aS'MD_822821069005_000'
p215
aS'MD_587371520598_000'
p216
aS'MD_916400834021_000'
p217
aS'MD_116796029192_000'
p218
aS'MD_896443869496_000'
p219
aS'MD_906159558976_000'
p220
aS'MD_841826007875_000'
p221
aS'MD_663285408684_000'
p222
aS'MD_700305141184_000'
p223
aS'MD_467593904340_000'
p224
aS'MD_964206230770_000'
p225
aS'MD_170837926220_000'
p226
aS'MD_910703484542_000'
p227
aS'MD_647801628083_000'
p228
aS'MD_380887245571_000'
p229
aS'MD_971983858908_000'
p230
aS'MD_458045743147_000'
p231
aS'MD_450424921037_000'
p232
aS'MD_329344700483_000'
p233
aS'MD_148610307114_000'
p234
aS'MD_705810581327_000'
p235
aS'MD_891382158062_000'
p236
aS'MD_943952566099_000'
p237
aS'MD_788625215018_000'
p238
aS'MD_581419926137_000'
p239
aS'MD_814318428176_000'
p240
aS'MD_687080321982_000'
p241
aS'MD_455450737842_000'
p242
aS'MD_763803872367_000'
p243
aS'MD_905199101267_000'
p244
aS'MD_119727369880_000'
p245
aS'MD_792796837312_000'
p246
aS'MD_259909682211_000'
p247
aS'MD_156290419904_000'
p248
aS'MD_963185365031_000'
p249
aS'MD_825771256398_000'
p250
aS'MD_721415915520_000'
p251
aS'MD_564149960764_000'
p252
aS'MD_728092871271_000'
p253
aS'MD_687427889988_000'
p254
aS'MD_458332856410_000'
p255
aS'MD_398912608805_000'
p256
aS'MD_221451339098_000'
p257
aS'MD_300507675090_000'
p258
aS'MD_441263168878_000'
p259
aS'MD_645293646247_000'
p260
aS'MD_144996846678_000'
p261
aS'MD_198189351092_000'
p262
aS'MD_874644784897_000'
p263
aS'MD_768730454768_000'
p264
aS'MD_788672069902_000'
p265
aS'MD_807923754179_000'
p266
aS'MD_638452892209_000'
p267
aS'MD_725218519815_000'
p268
aS'MD_619172442301_000'
p269
aS'MD_945333455795_000'
p270
aS'MD_621819020375_000'
p271
aS'MD_196981468650_000'
p272
aS'MD_523827039515_000'
p273
aS'MD_459894310972_000'
p274
aS'MD_708979646217_000'
p275
aS'MD_728221232939_000'
p276
aS'MD_347706249860_000'
p277
aS'MD_706047936036_000'
p278
aS'MD_788380874879_000'
p279
aS'MD_411023769202_000'
p280
aS'MD_873540779241_000'
p281
aS'MD_492222672671_000'
p282
aS'MD_381817386693_000'
p283
aS'MD_277609596724_000'
p284
aS'MD_237436438334_000'
p285
aS'MD_662610436711_000'
p286
aS'MD_937001226755_000'
p287
aS'MD_910639592606_000'
p288
aS'MD_339960938398_000'
p289
aS'MD_770798798629_000'
p290
aS'MD_602376621632_000'
p291
aS'MD_791611563531_000'
p292
aS'MD_412275684018_000'
p293
aS'MD_303844879659_000'
p294
aS'MD_673626379609_000'
p295
aS'MD_698990448256_000'
p296
aS'MD_851792078482_000'
p297
aS'MD_940393552877_000'
p298
aS'MD_818885771644_000'
p299
aS'MD_329480571080_000'
p300
aS'MD_592461390212_000'
p301
aS'MD_849397402245_000'
p302
aS'MD_930166510838_000'
p303
aS'MD_772823097185_000'
p304
aS'MD_184996956293_000'
p305
aS'MD_505822685243_000'
p306
aS'MD_956111478178_000'
p307
aS'MD_668179571317_000'
p308
aS'MD_382698347334_000'
p309
aS'MD_797316278755_000'
p310
aS'MD_623475984027_000'
p311
aS'MD_800821461795_000'
p312
aS'MD_417061061921_000'
p313
aS'MD_868637576610_000'
p314
aS'MD_549364174407_000'
p315
aS'MD_948853012398_000'
p316
aS'MD_831943904722_000'
p317
aS'MD_275978364111_000'
p318
aS'MD_218947078881_000'
p319
aS'MD_664027294166_000'
p320
aS'MD_422213072265_000'
p321
aS'MD_735267020068_000'
p322
aS'MD_412805041881_000'
p323
aS'MD_390211509779_000'
p324
aS'MD_186837880567_000'
p325
aS'MD_700060380968_000'
p326
aS'MD_432984432936_000'
p327
aS'MD_570783956702_000'
p328
aS'MD_346962145974_000'
p329
aS'MD_411468437107_000'
p330
aS'MD_401948857132_000'
p331
aS'MD_587178132557_000'
p332
aS'MD_296258688857_000'
p333
aS'MD_473235385766_000'
p334
aS'MD_216237833169_000'
p335
aS'MD_550410933788_000'
p336
aS'MD_374773270841_000'
p337
aS'MD_778631414005_000'
p338
aS'MD_823265230644_000'
p339
aS'MD_469592155758_000'
p340
aS'MD_499651921252_000'
p341
aS'MD_440590824062_000'
p342
aS'MD_302460235577_000'
p343
aS'MD_330201644055_000'
p344
aS'MD_202004252990_000'
p345
aS'MD_226664008243_000'
p346
aS'MD_465802456976_000'
p347
aS'MD_267043023492_000'
p348
aS'MD_816807254268_000'
p349
aS'MD_141478969442_000'
p350
aS'MD_343253004576_000'
p351
aS'MD_859687911936_000'
p352
aS'MD_227984698601_000'
p353
aS'MD_857982179136_000'
p354
aS'MD_231177736584_000'
p355
aS'MD_104263822529_000'
p356
aS'MD_677430996313_000'
p357
aS'MD_478231419596_000'
p358
aS'MD_441291325603_000'
p359
aS'MD_474866872590_000'
p360
aS'MD_352355224370_000'
p361
aS'MD_278193469767_000'
p362
aS'MD_272523018033_000'
p363
aS'MD_421514298221_000'
p364
aS'MD_310357885784_000'
p365
aS'MD_784106032338_000'
p366
aS'MD_431819822310_000'
p367
aS'MD_416586945655_000'
p368
aS'MD_403395464306_000'
p369
aS'MD_865573976690_000'
p370
aS'MD_349608450899_000'
p371
aS'MD_325457312363_000'
p372
aS'MD_142002528936_000'
p373
aS'MD_336957455493_000'
p374
aS'MD_907191411273_000'
p375
aS'MD_697222788807_000'
p376
aS'MD_143902376599_000'
p377
aS'MD_536009996502_000'
p378
aS'MD_150155186904_000'
p379
aS'MD_308659496172_000'
p380
aS'MD_829833749330_000'
p381
aS'MD_722866047443_000'
p382
aS'MD_170602451170_000'
p383
aS'MD_150237505761_000'
p384
aS'MD_700372691869_000'
p385
aS'MD_826839369166_000'
p386
aS'MD_956060477909_000'
p387
aS'MD_325587244155_000'
p388
aS'MD_243153337565_000'
p389
aS'MD_811553585250_000'
p390
aS'MD_475410075695_000'
p391
aS'MD_745438085380_000'
p392
aS'MD_125627590708_000'
p393
aS'MD_740757464630_000'
p394
aS'MD_837309648514_000'
p395
aS'MD_439156418110_000'
p396
aS'MD_982718067900_000'
p397
aS'MD_972898730207_000'
p398
aS'MD_102051334673_000'
p399
aS'MD_238979433080_000'
p400
aS'MD_432801198110_000'
p401
aS'MD_376179993317_000'
p402
aS'MD_290577123558_000'
p403
aS'MD_503266514966_000'
p404
aS'MD_916497347376_000'
p405
aS'MD_946474477889_000'
p406
aS'MD_937932733020_000'
p407
aS'MD_828028029185_000'
p408
aS'MD_779462928634_000'
p409
aS'MD_125129291053_000'
p410
aS'MD_336630867839_000'
p411
aS'MD_433364842463_000'
p412
aS'MD_349521021632_000'
p413
aS'MD_546589053651_000'
p414
aS'MD_319858809171_000'
p415
aS'MD_506378190194_000'
p416
aS'MD_391358053145_000'
p417
aS'MD_505399299607_000'
p418
aS'MD_556951189297_000'
p419
aS'MD_154732573151_000'
p420
aS'MD_620871885686_000'
p421
aS'MD_426754365934_000'
p422
aS'MD_619557875520_000'
p423
aS'MD_110454880016_000'
p424
aS'MD_720544824629_000'
p425
aS'MD_489156604489_000'
p426
aS'MD_940848375641_000'
p427
aS'MD_401097287034_000'
p428
aS'MD_215162100184_000'
p429
aS'MD_822281467171_000'
p430
aS'MD_414918518187_000'
p431
aS'MD_278650544548_000'
p432
aS'MD_104694684520_000'
p433
aS'MD_562398042420_000'
p434
aS'MD_139378555657_000'
p435
aS'MD_697191437156_000'
p436
aS'MD_486261205107_000'
p437
aS'MD_694919255472_000'
p438
aS'MD_899271010202_000'
p439
aS'MD_929905752721_000'
p440
aS'MD_294290582612_000'
p441
aS'MD_226851397538_000'
p442
aS'MD_297280181713_000'
p443
aS'MD_579347160403_000'
p444
aS'MD_531811095471_000'
p445
aS'MD_248250602212_000'
p446
aS'MD_191828588114_000'
p447
aS'MD_404368396990_000'
p448
aS'MD_967242388458_000'
p449
aS'MD_442972924904_000'
p450
aS'MD_527942162027_000'
p451
aS'MD_129141668500_000'
p452
aS'MD_888221880352_000'
p453
aS'MD_513211550303_000'
p454
aS'MD_336941197665_000'
p455
aS'MD_568558534945_000'
p456
aS'MD_952942227513_000'
p457
aS'MD_469230355065_000'
p458
aS'MD_714298315168_000'
p459
aS'MD_824537184363_000'
p460
aS'MD_251135614836_000'
p461
aS'MD_409945839582_000'
p462
aS'MD_219934196758_000'
p463
aS'MD_365817590916_000'
p464
aS'MD_225069816369_000'
p465
aS'MD_169107363135_000'
p466
aS'MD_477342091642_000'
p467
aS'MD_668791103648_000'
p468
aS'MD_744305252663_000'
p469
aS'MD_104595062761_000'
p470
aS'MD_405993635365_000'
p471
aS'MD_964672446274_000'
p472
aS'MD_514145848689_000'
p473
aS'MD_590119878065_000'
p474
aS'MD_544577073150_000'
p475
aS'MD_638472261952_000'
p476
aS'MD_530392380918_000'
p477
aS'MD_202868742956_000'
p478
aS'MD_935696615367_000'
p479
aS'MD_605327157138_000'
p480
aS'MD_980577433841_000'
p481
aS'MD_180468412632_000'
p482
aS'MD_622741365502_000'
p483
aS'MD_711212255696_000'
p484
aS'MD_756957760091_000'
p485
aS'MD_791078817284_000'
p486
aS'MD_361926665493_000'
p487
aS'MD_147589473788_000'
p488
aS'MD_275973064381_000'
p489
aS'MD_457903358222_000'
p490
aS'MD_421956621158_000'
p491
aS'MD_983539038242_000'
p492
aS'MD_386928883383_000'
p493
aS'MD_898778232917_000'
p494
aS'MD_182616744308_000'
p495
aS'MD_403588271738_000'
p496
aS'MD_378333740719_000'
p497
aS'MD_953708184107_000'
p498
aS'MD_725266638812_000'
p499
aS'MD_286673265128_000'
p500
aS'MD_141888818331_000'
p501
aS'MD_385013140962_000'
p502
aS'MD_105666895493_000'
p503
aS'MD_597771615317_000'
p504
aS'MD_776204641195_000'
p505
aS'MD_911806998781_000'
p506
aS'MD_952217013379_000'
p507
aS'MD_124598678500_000'
p508
aS'MD_673612626713_000'
p509
aS'MD_650788934164_000'
p510
aS'MD_235111493120_000'
p511
aS'MD_521859094973_000'
p512
aS'MD_384259534444_000'
p513
aS'MD_348470119794_000'
p514
aS'MD_474981423561_000'
p515
aS'MD_696492744320_000'
p516
aS'MD_519005910267_000'
p517
aS'MD_883482884597_000'
p518
aS'MD_211086785485_000'
p519
aS'MD_202598540687_000'
p520
aS'MD_172290319154_000'
p521
aS'MD_572242012183_000'
p522
aS'MD_612214022005_000'
p523
aS'MD_405728114769_000'
p524
aS'MD_605582404296_000'
p525
aS'MD_204213446334_000'
p526
aS'MD_370005533779_000'
p527
aS'MD_950693626304_000'
p528
aS'MD_892074372194_000'
p529
aS'MD_155240783793_000'
p530
aS'MD_976575236020_000'
p531
aS'MD_586675906269_000'
p532
aS'MD_378874182230_000'
p533
aS'MD_917356807132_000'
p534
aS'MD_191964555417_000'
p535
aS'MD_866936061529_000'
p536
aS'MD_959304458976_000'
p537
aS'MD_591862620503_000'
p538
aS'MD_520323517722_000'
p539
aS'MD_235686000578_000'
p540
aS'MD_309132709088_000'
p541
aS'MD_515201130694_000'
p542
aS'MD_769423839856_000'
p543
aS'MD_763044675128_000'
p544
aS'MD_190525188132_000'
p545
aS'MD_561911294988_000'
p546
aS'MD_940186466330_000'
p547
aS'MD_693420755092_000'
p548
aS'MD_399903035158_000'
p549
aS'MD_182059604951_000'
p550
aS'MD_917517720046_000'
p551
aS'MD_176814692932_000'
p552
aS'MD_964180947171_000'
p553
aS'MD_363706567257_000'
p554
aS'MD_656216071164_000'
p555
aS'MD_484746809878_000'
p556
aS'MD_519050212334_000'
p557
aS'MD_333958444682_000'
p558
aS'MD_886878510409_000'
p559
aS'MD_854463469053_000'
p560
aS'MD_462352324951_000'
p561
aS'MD_547509593073_000'
p562
aS'MD_443615218946_000'
p563
aS'MD_419812211130_000'
p564
aS'MD_134411714032_000'
p565
aS'MD_275737891721_000'
p566
aS'MD_646927622981_000'
p567
aS'MD_544741170070_000'
p568
aS'MD_419804018329_000'
p569
aS'MD_557530079543_000'
p570
aS'MD_364144655871_000'
p571
aS'MD_774054918129_000'
p572
aS'MD_219429070163_000'
p573
aS'MD_824111252488_000'
p574
aS'MD_834123975593_000'
p575
aS'MD_780192085047_000'
p576
aS'MD_107498225431_000'
p577
aS'MD_456860766449_000'
p578
aS'MD_537484533891_000'
p579
aS'MD_919100916705_000'
p580
aS'MD_392739343650_000'
p581
aS'MD_583259804312_000'
p582
aS'MD_820533071276_000'
p583
aS'MD_243590178644_000'
p584
aS'MD_315178392693_000'
p585
aS'MD_661282721585_000'
p586
aS'MD_145151696260_000'
p587
aS'MD_556186833116_000'
p588
aS'MD_597406923046_000'
p589
aS'MD_152463378869_000'
p590
aS'MD_634011766762_000'
p591
aS'MD_508621846603_000'
p592
aS'MD_867055571214_000'
p593
aS'MD_643856123127_000'
p594
aS'MD_336449043033_000'
p595
aS'MD_906282918986_000'
p596
aS'MD_124652899249_000'
p597
aS'MD_638446970138_000'
p598
aS'MD_269785421474_000'
p599
aS'MD_235010295448_000'
p600
aS'MD_729358337984_000'
p601
aS'MD_172492279748_000'
p602
aS'MD_301850249457_000'
p603
aS'MD_558703707041_000'
p604
aS'MD_772676642477_000'
p605
aS'MD_975617393515_000'
p606
aS'MD_941395537193_000'
p607
aS'MD_133933539767_000'
p608
aS'MD_937205145805_000'
p609
aS'MD_847054129792_000'
p610
aS'MD_963390919908_000'
p611
aS'MD_303036721935_000'
p612
aS'MD_765653091089_000'
p613
aS'MD_643300840183_000'
p614
aS'MD_261592796294_000'
p615
aS'MD_228685134330_000'
p616
aS'MD_988162755927_000'
p617
aS'MD_826597990940_000'
p618
aS'MD_962035400520_000'
p619
aS'MD_804454142659_000'
p620
aS'MD_460394163503_000'
p621
aS'MD_913960283298_000'
p622
aS'MD_132894647759_000'
p623
aS'MD_204639250325_000'
p624
aS'MD_244686493417_000'
p625
aS'MD_486460208706_000'
p626
aS'MD_487050015905_000'
p627
aS'MD_346127151567_000'
p628
aS'MD_411950510498_000'
p629
aS'MD_964341855653_000'
p630
aS'MD_835491732315_000'
p631
aS'MD_489757713572_000'
p632
aS'MD_935169805204_000'
p633
aS'MD_296778658115_000'
p634
aS'MD_229278535675_000'
p635
aS'MD_494167771432_000'
p636
aS'MD_306974419982_000'
p637
aS'MD_564536740252_000'
p638
aS'MD_258255650893_000'
p639
aS'MD_609622827914_000'
p640
aS'MD_863371941592_000'
p641
aS'MD_666676646695_000'
p642
aS'MD_383726906110_000'
p643
aS'MD_304065137633_000'
p644
aS'MD_768399199742_000'
p645
aS'MD_669316987806_000'
p646
aS'MD_938295369153_000'
p647
aS'MD_867019920811_000'
p648
aS'MD_317214402707_000'
p649
aS'MD_835993373857_000'
p650
aS'MD_166802721093_000'
p651
aS'MD_735840120772_000'
p652
aS'MD_377511604740_000'
p653
aS'MD_900940578959_000'
p654
aS'MD_894952614683_000'
p655
aS'MD_853997332815_000'
p656
aS'MD_508430893275_000'
p657
aS'MD_400903086133_000'
p658
aS'MD_343472738127_000'
p659
aS'MD_971157628802_000'
p660
aS'MD_288605052847_000'
p661
aS'MD_416927551442_000'
p662
aS'MD_743982641083_000'
p663
aS'MD_105372683199_000'
p664
aS'MD_898997259634_000'
p665
aS'MD_284198882610_000'
p666
aS'MD_745420732094_000'
p667
aS'MD_752861254935_000'
p668
aS'MD_343285902378_000'
p669
aS'MD_993533918469_000'
p670
aS'MD_722524370864_000'
p671
aS'MD_451989182119_000'
p672
aS'MD_112585674730_000'
p673
aS'MD_122205523262_000'
p674
aS'MD_126066523600_000'
p675
aS'MD_864104036230_000'
p676
aS'MD_176177179428_000'
p677
aS'MD_253528057018_000'
p678
aS'MD_402981737329_000'
p679
aS'MD_989947782298_000'
p680
aS'MD_941236617205_000'
p681
aS'MD_170749538938_000'
p682
aS'MD_769166413607_000'
p683
aS'MD_323790508376_000'
p684
aS'MD_572205905209_000'
p685
aS'MD_230676462189_000'
p686
aS'MD_661342868286_000'
p687
aS'MD_512810966381_000'
p688
aS'MD_139588298491_000'
p689
aS'MD_722839727957_000'
p690
aS'MD_262054132075_000'
p691
aS'MD_690891123065_000'
p692
aS'MD_257586352957_000'
p693
aS'MD_374447907893_000'
p694
aS'MD_529497586753_000'
p695
aS'MD_362057107082_000'
p696
aS'MD_570828667952_000'
p697
aS'MD_638456599092_000'
p698
aS'MD_162977230123_000'
p699
aS'MD_888200705988_000'
p700
aS'MD_835494791664_000'
p701
aS'MD_423113709837_000'
p702
aS'MD_473431519441_000'
p703
aS'MD_208090449576_000'
p704
aS'MD_105705306303_000'
p705
aS'MD_121197731186_000'
p706
aS'MD_698067342688_000'
p707
aS'MD_235776320170_000'
p708
aS'MD_735469521126_000'
p709
aS'MD_183590190116_000'
p710
aS'MD_690726869535_000'
p711
aS'MD_989321554218_000'
p712
aS'MD_776247623065_000'
p713
aS'MD_174720415324_000'
p714
aS'MD_841331149995_000'
p715
aS'MD_113086422005_000'
p716
aS'MD_708472075981_000'
p717
aS'MD_768156763975_000'
p718
aS'MD_504638713168_000'
p719
aS'MD_225795431578_000'
p720
aS'MD_609913925541_000'
p721
aS'MD_382412091507_000'
p722
aS'MD_171874952179_000'
p723
aS'MD_461740223704_000'
p724
aS'MD_119672464086_000'
p725
aS'MD_547652948721_000'
p726
aS'MD_298593029614_000'
p727
aS'MD_504537000274_000'
p728
aS'MD_991046248966_000'
p729
aS'MD_235085268199_000'
p730
aS'MD_822201764465_000'
p731
aS'MD_426503846481_000'
p732
aS'MD_606425721492_000'
p733
aS'MD_547383274318_000'
p734
aS'MD_901689303842_000'
p735
aS'MD_869392110378_000'
p736
aS'MD_153356715056_000'
p737
aS'MD_889335651506_000'
p738
aS'MD_868430418879_000'
p739
aS'MD_958734190160_000'
p740
aS'MD_732424734976_000'
p741
aS'MD_732927301609_000'
p742
aS'MD_756899317389_000'
p743
aS'MD_966522687777_000'
p744
aS'MD_932003165380_000'
p745
aS'MD_712356397562_000'
p746
aS'MD_155000638336_000'
p747
aS'MD_991352361023_000'
p748
aS'MD_763018965207_000'
p749
aS'MD_846947180013_000'
p750
aS'MD_609243064121_000'
p751
aS'MD_337005776324_000'
p752
aS'MD_469794315653_000'
p753
aS'MD_778133897085_000'
p754
aS'MD_872551009713_000'
p755
aS'MD_847039477018_000'
p756
aS'MD_448552342853_000'
p757
aS'MD_700697261461_000'
p758
aS'MD_411441723561_000'
p759
aS'MD_175172436446_000'
p760
aS'MD_267651855732_000'
p761
aS'MD_459760021285_000'
p762
aS'MD_103060657552_000'
p763
aS'MD_331172395123_000'
p764
aS'MD_126795977451_000'
p765
aS'MD_480282677517_000'
p766
aS'MD_999494863928_000'
p767
aS'MD_451748433145_000'
p768
aS'MD_328106055005_000'
p769
aS'MD_147363733394_000'
p770
aS'MD_507741737999_000'
p771
aS'MD_333828688358_000'
p772
aS'MD_784301052771_000'
p773
aS'MD_515718268560_000'
p774
aS'MD_161213419778_000'
p775
aS'MD_119880428076_000'
p776
aS'MD_670252436449_000'
p777
aS'MD_923231308267_000'
p778
aS'MD_120219714355_000'
p779
aS'MD_306811650663_000'
p780
aS'MD_229130777332_000'
p781
aS'MD_830762285396_000'
p782
aS'MD_656096711062_000'
p783
aS'MD_654614461928_000'
p784
aS'MD_291250312358_000'
p785
aS'MD_791868486427_000'
p786
aS'MD_160562046700_000'
p787
aS'MD_853072012160_000'
p788
aS'MD_973780925234_000'
p789
aS'MD_910081067111_000'
p790
aS'MD_294982366997_000'
p791
aS'MD_969351007517_000'
p792
aS'MD_892575828512_000'
p793
aS'MD_951884501050_000'
p794
aS'MD_849969636603_000'
p795
aS'MD_719645519164_000'
p796
aS'MD_257028213775_000'
p797
aS'MD_232158850679_000'
p798
aS'MD_144084347077_000'
p799
aS'MD_330253435719_000'
p800
aS'MD_675532937846_000'
p801
aS'MD_256313547808_000'
p802
aS'MD_323618608803_000'
p803
aS'MD_356057481450_000'
p804
aS'MD_850274009109_000'
p805
aS'MD_717410931341_000'
p806
aS'MD_521405542884_000'
p807
aS'MD_638035929654_000'
p808
aS'MD_225250620337_000'
p809
aS'MD_257298702465_000'
p810
aS'MD_517337331230_000'
p811
aS'MD_886059114264_000'
p812
aS'MD_629723232681_000'
p813
aS'MD_968155669218_000'
p814
aS'MD_792191191165_000'
p815
aS'MD_510017468968_000'
p816
aS'MD_120322840783_000'
p817
aS'MD_166457233705_000'
p818
aS'MD_907426149459_000'
p819
aS'MD_450651395676_000'
p820
aS'MD_716775178045_000'
p821
aS'MD_358263437055_000'
p822
aS'MD_852964917540_000'
p823
aS'MD_555749999359_000'
p824
aS'MD_181976346869_000'
p825
aS'MD_973320945566_000'
p826
aS'MD_763877873689_000'
p827
aS'MD_582420662563_000'
p828
aS'MD_251619158490_000'
p829
aS'MD_767112878528_000'
p830
aS'MD_371986511973_000'
p831
aS'MD_236602095510_000'
p832
aS'MD_451597477659_000'
p833
aS'MD_712057105429_000'
p834
aS'MD_738897694364_000'
p835
aS'MD_523276888428_000'
p836
aS'MD_496624253670_000'
p837
aS'MD_223199133753_000'
p838
aS'MD_742057079841_000'
p839
aS'MD_849117894621_000'
p840
aS'MD_114998543254_000'
p841
aS'MD_856896925549_000'
p842
aS'MD_331656498937_000'
p843
aS'MD_900486538455_000'
p844
aS'MD_474571985483_000'
p845
aS'MD_658153131939_000'
p846
aS'MD_698684801092_000'
p847
aS'MD_529464115673_000'
p848
aS'MD_555589474725_000'
p849
aS'MD_470996835019_000'
p850
aS'MD_197458878822_000'
p851
aS'MD_742426955680_000'
p852
aS'MD_575177273723_000'
p853
aS'MD_812272354151_000'
p854
aS'MD_285611816107_000'
p855
aS'MD_258735759334_000'
p856
aS'MD_521009396875_000'
p857
aS'MD_865049386025_000'
p858
aS'MD_980244596811_000'
p859
aS'MD_189545829429_000'
p860
aS'MD_673328008003_000'
p861
aS'MD_353365621000_000'
p862
aS'MD_839853602743_000'
p863
aS'MD_686931349091_000'
p864
aS'MD_996675721050_000'
p865
aS'MD_251759529227_000'
p866
aS'MD_557338005460_000'
p867
aS'MD_389697498001_000'
p868
aS'MD_605672657343_000'
p869
aS'MD_747493267646_000'
p870
aS'MD_702297290886_000'
p871
aS'MD_849505396529_000'
p872
aS'MD_400589626835_000'
p873
aS'MD_295874427274_000'
p874
aS'MD_547750853436_000'
p875
aS'MD_455285907606_000'
p876
aS'MD_196924619544_000'
p877
aS'MD_151926276017_000'
p878
aS'MD_590284652566_000'
p879
aS'MD_191308377309_000'
p880
aS'MD_760268071952_000'
p881
aS'MD_779378971366_000'
p882
aS'MD_753926891012_000'
p883
aS'MD_147729200133_000'
p884
aS'MD_503390167796_000'
p885
aS'MD_669576659798_000'
p886
aS'MD_864364991527_000'
p887
aS'MD_271755059068_000'
p888
aS'MD_790262527278_000'
p889
aS'MD_795482920716_000'
p890
aS'MD_934763957635_000'
p891
aS'MD_691283632143_000'
p892
aS'MD_591459378990_000'
p893
aS'MD_664676723141_000'
p894
aS'MD_836855343033_000'
p895
aS'MD_385539372793_000'
p896
aS'MD_208834677264_000'
p897
aS'MD_916601464413_000'
p898
a.