(lp1
S'MO_467158512382_000'
p2
aS'MO_237270063500_000'
p3
aS'MO_830133922208_000'
p4
aS'MO_208979916798_000'
p5
aS'MO_929900743572_000'
p6
aS'MO_282735481096_000'
p7
aS'MO_233387134986_000'
p8
aS'MO_119982683540_000'
p9
aS'MO_932107103301_000'
p10
aS'MO_640144443265_000'
p11
aS'MO_104394698947_000'
p12
aS'MO_973503859991_000'
p13
aS'MO_341110639097_000'
p14
aS'MO_607562204129_000'
p15
aS'MO_151191615847_000'
p16
aS'MO_189320363545_000'
p17
aS'MO_258800849047_000'
p18
aS'MO_196351898123_000'
p19
aS'MO_476101874792_000'
p20
aS'MO_298194233304_000'
p21
aS'MO_387814413867_000'
p22
aS'MO_720225387750_000'
p23
aS'MO_869877731869_000'
p24
aS'MO_516654055095_000'
p25
aS'MO_819773585142_000'
p26
aS'MO_126802452461_000'
p27
aS'MO_338611872895_000'
p28
aS'MO_501605682035_000'
p29
aS'MO_579464872719_000'
p30
aS'MO_571064987107_000'
p31
aS'MO_376774535162_000'
p32
aS'MO_594480752489_000'
p33
aS'MO_962906638148_000'
p34
aS'MO_878014751098_000'
p35
aS'MO_626420888990_000'
p36
aS'MO_541176473936_000'
p37
aS'MO_618111967995_000'
p38
aS'MO_254831673598_000'
p39
aS'MO_373666117292_000'
p40
aS'MO_945487057823_000'
p41
aS'MO_380650893976_000'
p42
aS'MO_288268758377_000'
p43
aS'MO_363316139059_000'
p44
aS'MO_951259558869_000'
p45
aS'MO_981701412618_000'
p46
aS'MO_865334528940_000'
p47
aS'MO_515468994751_000'
p48
aS'MO_187633769613_000'
p49
aS'MO_330111153597_000'
p50
aS'MO_870126566609_000'
p51
aS'MO_883442962260_000'
p52
aS'MO_333794303636_000'
p53
aS'MO_337223400621_000'
p54
aS'MO_589867020445_000'
p55
aS'MO_280237839710_000'
p56
aS'MO_783713436130_000'
p57
aS'MO_492185239459_000'
p58
aS'MO_883315943783_000'
p59
aS'MO_545529231199_000'
p60
aS'MO_702733342454_000'
p61
aS'MO_201900319617_000'
p62
aS'MO_849308416171_000'
p63
aS'MO_878077212214_000'
p64
aS'MO_596713011879_000'
p65
aS'MO_837791646735_000'
p66
aS'MO_963287968295_000'
p67
aS'MO_773892297304_000'
p68
aS'MO_472174536895_000'
p69
aS'MO_773141865708_000'
p70
aS'MO_485346345512_000'
p71
aS'MO_578744087030_000'
p72
aS'MO_829904401964_000'
p73
aS'MO_989442719655_000'
p74
aS'MO_418820498890_000'
p75
aS'MO_961766223323_000'
p76
aS'MO_403040833604_000'
p77
aS'MO_170459083109_000'
p78
aS'MO_957999873580_000'
p79
aS'MO_777378350217_000'
p80
aS'MO_565719479260_000'
p81
aS'MO_342010231941_000'
p82
aS'MO_831117399272_000'
p83
aS'MO_909327588636_000'
p84
aS'MO_513143976307_000'
p85
aS'MO_385661100001_000'
p86
aS'MO_725564875243_000'
p87
aS'MO_138058854895_000'
p88
aS'MO_273844855053_000'
p89
aS'MO_885182424972_000'
p90
aS'MO_340820632760_000'
p91
aS'MO_196248448016_000'
p92
aS'MO_416897503246_000'
p93
aS'MO_200846335523_000'
p94
aS'MO_850880472410_000'
p95
aS'MO_253500057153_000'
p96
aS'MO_277095138991_000'
p97
aS'MO_989118772614_000'
p98
aS'MO_452309002166_000'
p99
aS'MO_295901726517_000'
p100
aS'MO_580093864869_000'
p101
aS'MO_716048337372_000'
p102
aS'MO_147463161273_000'
p103
aS'MO_740630135668_000'
p104
aS'MO_424378872268_000'
p105
aS'MO_819550012410_000'
p106
aS'MO_868628238602_000'
p107
aS'MO_532038787901_000'
p108
aS'MO_373060999450_000'
p109
aS'MO_752780469196_000'
p110
aS'MO_736411140093_000'
p111
aS'MO_745390231394_000'
p112
aS'MO_548336121818_000'
p113
aS'MO_175645781123_000'
p114
aS'MO_259196734147_000'
p115
aS'MO_467452790757_000'
p116
aS'MO_751946765282_000'
p117
aS'MO_904158649480_000'
p118
aS'MO_982647135671_000'
p119
aS'MO_804556488468_000'
p120
aS'MO_254046283775_000'
p121
aS'MO_330179986618_000'
p122
aS'MO_108073945283_000'
p123
aS'MO_904038740943_000'
p124
aS'MO_619192885330_000'
p125
aS'MO_945604083506_000'
p126
aS'MO_849873392754_000'
p127
aS'MO_355854110159_000'
p128
aS'MO_978131235743_000'
p129
aS'MO_281207948402_000'
p130
aS'MO_538683275558_000'
p131
aS'MO_107027100369_000'
p132
aS'MO_465777294886_000'
p133
aS'MO_467974692691_000'
p134
aS'MO_923483669666_000'
p135
aS'MO_211189070276_000'
p136
aS'MO_161443506150_000'
p137
aS'MO_533680776091_000'
p138
aS'MO_931382192089_000'
p139
aS'MO_952089733731_000'
p140
aS'MO_854857120116_000'
p141
aS'MO_799948219896_000'
p142
aS'MO_598637423184_000'
p143
aS'MO_396223323950_000'
p144
aS'MO_879387369611_000'
p145
aS'MO_934070520298_000'
p146
aS'MO_951365290359_000'
p147
aS'MO_268412140677_000'
p148
aS'MO_162613543901_000'
p149
aS'MO_599569828220_000'
p150
aS'MO_967405169321_000'
p151
aS'MO_796147640175_000'
p152
aS'MO_106696140407_000'
p153
aS'MO_655704502408_000'
p154
aS'MO_849997057276_000'
p155
aS'MO_352650251854_000'
p156
aS'MO_288119970127_000'
p157
aS'MO_844313844352_000'
p158
aS'MO_714152219153_000'
p159
aS'MO_518577093838_000'
p160
aS'MO_816671603563_000'
p161
aS'MO_600362609003_000'
p162
aS'MO_905391784616_000'
p163
aS'MO_969750244323_000'
p164
aS'MO_174412087976_000'
p165
aS'MO_593683424550_000'
p166
aS'MO_623855585641_000'
p167
aS'MO_121973516780_000'
p168
aS'MO_609244283474_000'
p169
aS'MO_849431155652_000'
p170
aS'MO_989611884157_000'
p171
aS'MO_664313752345_000'
p172
aS'MO_292634096227_000'
p173
aS'MO_644998260442_000'
p174
aS'MO_197375354991_000'
p175
aS'MO_853328450040_000'
p176
aS'MO_773233067846_000'
p177
aS'MO_999462040556_000'
p178
aS'MO_256980947103_000'
p179
aS'MO_334518908228_000'
p180
aS'MO_359519130868_000'
p181
aS'MO_855081818001_000'
p182
aS'MO_261743763022_000'
p183
aS'MO_374168701559_000'
p184
aS'MO_994377376314_000'
p185
aS'MO_744179741504_000'
p186
aS'MO_792987008707_000'
p187
aS'MO_340483002069_000'
p188
aS'MO_794228205291_000'
p189
aS'MO_470469156449_000'
p190
aS'MO_964346909863_000'
p191
aS'MO_903132085662_000'
p192
aS'MO_946129365152_000'
p193
aS'MO_561620202040_000'
p194
aS'MO_177820121182_000'
p195
aS'MO_698262983623_000'
p196
aS'MO_332776387871_000'
p197
aS'MO_679575920186_000'
p198
aS'MO_358812618577_000'
p199
aS'MO_525275133131_000'
p200
aS'MO_897522014136_000'
p201
aS'MO_426479506678_000'
p202
aS'MO_309946724907_000'
p203
aS'MO_363670931143_000'
p204
aS'MO_383168525886_000'
p205
aS'MO_502809753919_000'
p206
aS'MO_791129704032_000'
p207
aS'MO_865252269066_000'
p208
aS'MO_863945458442_000'
p209
aS'MO_601041247087_000'
p210
aS'MO_928645972869_000'
p211
aS'MO_478738433915_000'
p212
aS'MO_334305929684_000'
p213
aS'MO_180502883659_000'
p214
aS'MO_998408880030_000'
p215
aS'MO_762225274625_000'
p216
aS'MO_846705150503_000'
p217
aS'MO_847666395672_000'
p218
aS'MO_247661624988_000'
p219
aS'MO_443863432878_000'
p220
aS'MO_697519004056_000'
p221
aS'MO_447111758892_000'
p222
aS'MO_598795700148_000'
p223
aS'MO_759048396694_000'
p224
aS'MO_583419584994_000'
p225
aS'MO_169504939653_000'
p226
aS'MO_846558596105_000'
p227
aS'MO_951317896733_000'
p228
aS'MO_200460897397_000'
p229
aS'MO_431590012818_000'
p230
aS'MO_418107637528_000'
p231
aS'MO_282500341090_000'
p232
aS'MO_659953302644_000'
p233
aS'MO_497474650065_000'
p234
aS'MO_205933710832_000'
p235
aS'MO_309707945503_000'
p236
aS'MO_427438020163_000'
p237
aS'MO_426266669745_000'
p238
aS'MO_422045704421_000'
p239
aS'MO_777702400489_000'
p240
aS'MO_493758209452_000'
p241
aS'MO_708850765903_000'
p242
aS'MO_657847140863_000'
p243
aS'MO_699844516410_000'
p244
aS'MO_186874491538_000'
p245
aS'MO_786417979846_000'
p246
aS'MO_953498931114_000'
p247
aS'MO_621595663835_000'
p248
aS'MO_580469019076_000'
p249
aS'MO_657796562225_000'
p250
aS'MO_753155180094_000'
p251
aS'MO_458835134408_000'
p252
aS'MO_301692243547_000'
p253
aS'MO_115923845903_000'
p254
aS'MO_620226737720_000'
p255
aS'MO_254382574026_000'
p256
aS'MO_283298493767_000'
p257
aS'MO_488313960371_000'
p258
aS'MO_915180983919_000'
p259
aS'MO_211417972104_000'
p260
aS'MO_202040235653_000'
p261
aS'MO_667772965862_000'
p262
aS'MO_194350312766_000'
p263
aS'MO_839307229032_000'
p264
aS'MO_256518331552_000'
p265
aS'MO_910275370883_000'
p266
aS'MO_170362596613_000'
p267
aS'MO_868626504866_000'
p268
aS'MO_229549075805_000'
p269
aS'MO_778632994223_000'
p270
aS'MO_928661518379_000'
p271
aS'MO_419746375681_000'
p272
aS'MO_661918919474_000'
p273
aS'MO_759981515932_000'
p274
aS'MO_652845095654_000'
p275
aS'MO_225453494703_000'
p276
aS'MO_564811160476_000'
p277
aS'MO_747827299734_000'
p278
aS'MO_828774851241_000'
p279
aS'MO_901855669396_000'
p280
aS'MO_331246508123_000'
p281
aS'MO_464989198299_000'
p282
aS'MO_914512107355_000'
p283
aS'MO_458272990395_000'
p284
aS'MO_569752486312_000'
p285
aS'MO_146645939412_000'
p286
aS'MO_157774479037_000'
p287
aS'MO_976375027057_000'
p288
aS'MO_930002913364_000'
p289
aS'MO_504703000529_000'
p290
aS'MO_694566670930_000'
p291
aS'MO_952690811489_000'
p292
aS'MO_690508431993_000'
p293
aS'MO_434351158226_000'
p294
aS'MO_876459217321_000'
p295
aS'MO_514709000807_000'
p296
aS'MO_264013220404_000'
p297
aS'MO_954774156011_000'
p298
aS'MO_927264289311_000'
p299
aS'MO_955929742203_000'
p300
aS'MO_799704887779_000'
p301
aS'MO_356099368069_000'
p302
aS'MO_183526967457_000'
p303
aS'MO_692475290185_000'
p304
aS'MO_818552895504_000'
p305
aS'MO_723156763815_000'
p306
aS'MO_402923511108_000'
p307
aS'MO_147441418032_000'
p308
aS'MO_636830004205_000'
p309
aS'MO_717364740056_000'
p310
aS'MO_185215744755_000'
p311
aS'MO_584081433077_000'
p312
aS'MO_417688338651_000'
p313
aS'MO_616186423427_000'
p314
aS'MO_831249613796_000'
p315
aS'MO_328971912091_000'
p316
aS'MO_322522697323_000'
p317
aS'MO_835257607723_000'
p318
aS'MO_556727792790_000'
p319
aS'MO_340239410567_000'
p320
aS'MO_468279998310_000'
p321
aS'MO_875395990743_000'
p322
aS'MO_602132157072_000'
p323
aS'MO_325889498370_000'
p324
aS'MO_508726659568_000'
p325
aS'MO_788987483816_000'
p326
aS'MO_464638410891_000'
p327
aS'MO_820270846980_000'
p328
aS'MO_714031057338_000'
p329
aS'MO_428028165657_000'
p330
aS'MO_777655637361_000'
p331
aS'MO_713545144694_000'
p332
aS'MO_429923525440_000'
p333
aS'MO_957255017502_000'
p334
aS'MO_908588799337_000'
p335
aS'MO_182780091802_000'
p336
aS'MO_782804528127_000'
p337
aS'MO_181338871306_000'
p338
aS'MO_619772807739_000'
p339
aS'MO_452859407922_000'
p340
aS'MO_505638114373_000'
p341
aS'MO_322479646792_000'
p342
aS'MO_760367571186_000'
p343
aS'MO_826226351432_000'
p344
aS'MO_570756679512_000'
p345
aS'MO_981395429435_000'
p346
aS'MO_132573335896_000'
p347
aS'MO_943425464414_000'
p348
aS'MO_272035887398_000'
p349
aS'MO_800845439950_000'
p350
aS'MO_479605345795_000'
p351
aS'MO_807704478892_000'
p352
aS'MO_413355700258_000'
p353
aS'MO_228208100659_000'
p354
aS'MO_548674602502_000'
p355
aS'MO_659221911687_000'
p356
aS'MO_663008165445_000'
p357
aS'MO_720851952320_000'
p358
aS'MO_253300704436_000'
p359
aS'MO_402330716384_000'
p360
aS'MO_195808791482_000'
p361
aS'MO_581791723647_000'
p362
aS'MO_837487696574_000'
p363
aS'MO_138455296400_000'
p364
aS'MO_936759767044_000'
p365
aS'MO_150764244556_000'
p366
aS'MO_714002772133_000'
p367
aS'MO_978454982056_000'
p368
aS'MO_182211090872_000'
p369
aS'MO_776753075404_000'
p370
aS'MO_653091276343_000'
p371
aS'MO_702355569723_000'
p372
aS'MO_434298560788_000'
p373
aS'MO_900983174883_000'
p374
aS'MO_429664462887_000'
p375
aS'MO_797585897722_000'
p376
aS'MO_125508589988_000'
p377
aS'MO_826591916495_000'
p378
aS'MO_958774412743_000'
p379
aS'MO_830588690132_000'
p380
aS'MO_274491596898_000'
p381
aS'MO_646900823084_000'
p382
aS'MO_815952835491_000'
p383
aS'MO_401642428650_000'
p384
aS'MO_171765210428_000'
p385
aS'MO_522572828567_000'
p386
aS'MO_712273530104_000'
p387
aS'MO_242418011500_000'
p388
aS'MO_615120877381_000'
p389
aS'MO_289733736767_000'
p390
aS'MO_913241620187_000'
p391
aS'MO_199155975316_000'
p392
aS'MO_574950633408_000'
p393
aS'MO_181616601854_000'
p394
aS'MO_697712760868_000'
p395
aS'MO_883939445932_000'
p396
aS'MO_797588535749_000'
p397
aS'MO_797699743923_000'
p398
aS'MO_681807067747_000'
p399
aS'MO_641450568269_000'
p400
aS'MO_453333658150_000'
p401
aS'MO_373142094300_000'
p402
aS'MO_262086190673_000'
p403
aS'MO_984922849055_000'
p404
aS'MO_847989441835_000'
p405
aS'MO_330533885478_000'
p406
aS'MO_943606306914_000'
p407
aS'MO_365375834493_000'
p408
aS'MO_735785979889_000'
p409
aS'MO_858468042215_000'
p410
aS'MO_381368389532_000'
p411
aS'MO_450806087265_000'
p412
aS'MO_507377932053_000'
p413
aS'MO_944542056941_000'
p414
aS'MO_198971223792_000'
p415
aS'MO_486087595274_000'
p416
aS'MO_467345533943_000'
p417
aS'MO_823483226659_000'
p418
aS'MO_834806464144_000'
p419
aS'MO_148720163674_000'
p420
aS'MO_312918787109_000'
p421
aS'MO_125220353961_000'
p422
aS'MO_608254185560_000'
p423
aS'MO_255217009879_000'
p424
aS'MO_348356211935_000'
p425
aS'MO_304089916924_000'
p426
aS'MO_223635242507_000'
p427
aS'MO_955224395243_000'
p428
aS'MO_819946904048_000'
p429
aS'MO_833768210659_000'
p430
aS'MO_724865612341_000'
p431
aS'MO_249048045556_000'
p432
aS'MO_578943628519_000'
p433
aS'MO_290241811819_000'
p434
aS'MO_559425196581_000'
p435
aS'MO_920526574207_000'
p436
aS'MO_406923634921_000'
p437
aS'MO_745975090740_000'
p438
aS'MO_258098205267_000'
p439
aS'MO_408483878668_000'
p440
aS'MO_705845971290_000'
p441
aS'MO_434276873570_000'
p442
aS'MO_960423011548_000'
p443
aS'MO_911568349961_000'
p444
aS'MO_958341540733_000'
p445
aS'MO_882052464610_000'
p446
aS'MO_911857771664_000'
p447
aS'MO_345043905224_000'
p448
aS'MO_939795023814_000'
p449
aS'MO_535134711529_000'
p450
aS'MO_446982816935_000'
p451
aS'MO_761853787565_000'
p452
aS'MO_941787272623_000'
p453
aS'MO_821366911529_000'
p454
aS'MO_291385813884_000'
p455
aS'MO_101200981074_000'
p456
aS'MO_888892932034_000'
p457
aS'MO_699703335872_000'
p458
aS'MO_902189644396_000'
p459
aS'MO_653220466814_000'
p460
aS'MO_863467319833_000'
p461
aS'MO_469761516740_000'
p462
aS'MO_834687677279_000'
p463
aS'MO_303352053387_000'
p464
aS'MO_189558693903_000'
p465
aS'MO_583501459767_000'
p466
aS'MO_183542029473_000'
p467
aS'MO_346112816303_000'
p468
aS'MO_671488415384_000'
p469
aS'MO_207913819782_000'
p470
aS'MO_209388324421_000'
p471
aS'MO_365497671282_000'
p472
aS'MO_142363576475_000'
p473
aS'MO_930908783757_000'
p474
aS'MO_743148784167_000'
p475
aS'MO_933867518019_000'
p476
aS'MO_416053991036_000'
p477
aS'MO_934568862892_000'
p478
aS'MO_872069329426_000'
p479
aS'MO_743065134563_000'
p480
aS'MO_667461412912_000'
p481
aS'MO_346813097724_000'
p482
aS'MO_210348541135_000'
p483
aS'MO_557679391183_000'
p484
aS'MO_743622440042_000'
p485
aS'MO_720535155250_000'
p486
aS'MO_321710091274_000'
p487
aS'MO_240211299536_000'
p488
aS'MO_844623493075_000'
p489
aS'MO_689007932605_000'
p490
aS'MO_831252299190_000'
p491
aS'MO_860763103597_000'
p492
aS'MO_715002794699_000'
p493
aS'MO_769006131111_000'
p494
aS'MO_583404102811_000'
p495
aS'MO_764796412404_000'
p496
aS'MO_273580013192_000'
p497
aS'MO_361574070136_000'
p498
aS'MO_745761346723_000'
p499
aS'MO_735661694839_000'
p500
aS'MO_205044820174_000'
p501
aS'MO_988319784029_000'
p502
aS'MO_773897987250_000'
p503
aS'MO_886315797033_000'
p504
aS'MO_607750285885_000'
p505
aS'MO_776396002678_000'
p506
aS'MO_475761145184_000'
p507
aS'MO_539410956764_000'
p508
aS'MO_603341539991_000'
p509
aS'MO_776262683326_000'
p510
aS'MO_284143291251_000'
p511
aS'MO_919853359761_000'
p512
aS'MO_672278704689_000'
p513
aS'MO_139123605975_000'
p514
aS'MO_616413394295_000'
p515
aS'MO_179760078777_000'
p516
aS'MO_118508956757_000'
p517
aS'MO_549983636207_000'
p518
aS'MO_712502878288_000'
p519
aS'MO_679247089080_000'
p520
aS'MO_349050637062_000'
p521
aS'MO_443654566155_000'
p522
aS'MO_801565533681_000'
p523
aS'MO_739656180467_000'
p524
aS'MO_125052846380_000'
p525
aS'MO_607702978852_000'
p526
aS'MO_181861990335_000'
p527
aS'MO_808037790251_000'
p528
aS'MO_509923718795_000'
p529
aS'MO_611913903984_000'
p530
aS'MO_669854623766_000'
p531
aS'MO_308742311691_000'
p532
aS'MO_282956916308_000'
p533
aS'MO_183378182497_000'
p534
aS'MO_391050991655_000'
p535
aS'MO_445163713830_000'
p536
aS'MO_729286080520_000'
p537
aS'MO_943013392963_000'
p538
aS'MO_523163089813_000'
p539
aS'MO_718110325915_000'
p540
aS'MO_581284299915_000'
p541
aS'MO_983230580615_000'
p542
aS'MO_352087013424_000'
p543
aS'MO_168945659153_000'
p544
aS'MO_885970379919_000'
p545
aS'MO_199316563215_000'
p546
aS'MO_506771525199_000'
p547
aS'MO_652532873602_000'
p548
aS'MO_794344903416_000'
p549
aS'MO_288088570989_000'
p550
aS'MO_513064189588_000'
p551
aS'MO_459170617888_000'
p552
aS'MO_600804353795_000'
p553
aS'MO_405249233237_000'
p554
aS'MO_281681478697_000'
p555
aS'MO_785556272861_000'
p556
aS'MO_640656784081_000'
p557
aS'MO_333433244920_000'
p558
aS'MO_719021954073_000'
p559
aS'MO_934422985539_000'
p560
aS'MO_910939031960_000'
p561
aS'MO_137178902882_000'
p562
aS'MO_230866964166_000'
p563
aS'MO_599515144573_000'
p564
aS'MO_827138694950_000'
p565
aS'MO_874700972589_000'
p566
aS'MO_632584184319_000'
p567
aS'MO_159971237006_000'
p568
aS'MO_363319351078_000'
p569
aS'MO_301222731655_000'
p570
aS'MO_934858365162_000'
p571
aS'MO_198069355611_000'
p572
aS'MO_966441155898_000'
p573
aS'MO_354628370089_000'
p574
aS'MO_137354609837_000'
p575
aS'MO_996391801594_000'
p576
aS'MO_605322069117_000'
p577
aS'MO_983254364505_000'
p578
aS'MO_506984269296_000'
p579
aS'MO_362888247181_000'
p580
aS'MO_822393951164_000'
p581
aS'MO_194464620824_000'
p582
aS'MO_333146730136_000'
p583
aS'MO_750670396462_000'
p584
aS'MO_564056041131_000'
p585
aS'MO_409844134547_000'
p586
aS'MO_741914402805_000'
p587
aS'MO_749350403656_000'
p588
aS'MO_164159692496_000'
p589
aS'MO_317538754705_000'
p590
aS'MO_996428476832_000'
p591
aS'MO_342482504091_000'
p592
aS'MO_669256557882_000'
p593
aS'MO_947312727672_000'
p594
aS'MO_835537201247_000'
p595
aS'MO_275595785896_000'
p596
aS'MO_895529526531_000'
p597
aS'MO_146853852625_000'
p598
aS'MO_963549460420_000'
p599
aS'MO_829129950899_000'
p600
aS'MO_359317660576_000'
p601
aS'MO_117768635348_000'
p602
aS'MO_155998300749_000'
p603
aS'MO_700661266758_000'
p604
aS'MO_764666814134_000'
p605
aS'MO_595861481660_000'
p606
aS'MO_319138966124_000'
p607
aS'MO_491621501267_000'
p608
aS'MO_632364501533_000'
p609
aS'MO_884047192806_000'
p610
aS'MO_809602558626_000'
p611
aS'MO_970045061629_000'
p612
aS'MO_219764258589_000'
p613
aS'MO_959437642107_000'
p614
aS'MO_316677421354_000'
p615
aS'MO_738228695507_000'
p616
aS'MO_277627555005_000'
p617
aS'MO_211875306155_000'
p618
aS'MO_619851496017_000'
p619
aS'MO_498004159706_000'
p620
aS'MO_797759084648_000'
p621
aS'MO_627795392520_000'
p622
aS'MO_389655346953_000'
p623
aS'MO_266337647235_000'
p624
aS'MO_135811523891_000'
p625
aS'MO_614110680566_000'
p626
aS'MO_965105452125_000'
p627
aS'MO_296990011113_000'
p628
aS'MO_384703491714_000'
p629
aS'MO_384535176621_000'
p630
aS'MO_509964744619_000'
p631
aS'MO_205532092435_000'
p632
aS'MO_951229123823_000'
p633
aS'MO_479892879682_000'
p634
aS'MO_441508958077_000'
p635
aS'MO_688687448326_000'
p636
aS'MO_956709350204_000'
p637
aS'MO_548455213106_000'
p638
aS'MO_737479419021_000'
p639
aS'MO_730989995527_000'
p640
aS'MO_465247745831_000'
p641
aS'MO_103110179484_000'
p642
aS'MO_933759860911_000'
p643
aS'MO_283626682297_000'
p644
aS'MO_726745261990_000'
p645
aS'MO_519670088141_000'
p646
aS'MO_486934799519_000'
p647
aS'MO_499679174532_000'
p648
aS'MO_948182005628_000'
p649
aS'MO_543108496460_000'
p650
aS'MO_731057823545_000'
p651
aS'MO_287458303943_000'
p652
aS'MO_864657318215_000'
p653
aS'MO_155218638302_000'
p654
aS'MO_644127330862_000'
p655
aS'MO_587077841547_000'
p656
aS'MO_511604610714_000'
p657
aS'MO_784127402044_000'
p658
aS'MO_127019240020_000'
p659
aS'MO_426457810728_000'
p660
aS'MO_552350364841_000'
p661
aS'MO_122747262682_000'
p662
aS'MO_768279989573_000'
p663
aS'MO_479199949695_000'
p664
aS'MO_710917696358_000'
p665
aS'MO_684596410850_000'
p666
aS'MO_819391193456_000'
p667
aS'MO_257151075716_000'
p668
aS'MO_557653403383_000'
p669
aS'MO_932552913480_000'
p670
aS'MO_958541771829_000'
p671
aS'MO_391541343245_000'
p672
aS'MO_195632669187_000'
p673
aS'MO_310020573960_000'
p674
aS'MO_447194421731_000'
p675
aS'MO_122993797376_000'
p676
aS'MO_474436854228_000'
p677
aS'MO_602530966553_000'
p678
aS'MO_677051390284_000'
p679
aS'MO_278027865790_000'
p680
aS'MO_416666619550_000'
p681
aS'MO_595679355135_000'
p682
aS'MO_103806449697_000'
p683
aS'MO_297248680791_000'
p684
aS'MO_954588946132_000'
p685
aS'MO_341172477081_000'
p686
aS'MO_628665578107_000'
p687
aS'MO_611099826142_000'
p688
aS'MO_605434510622_000'
p689
aS'MO_671507010130_000'
p690
aS'MO_509308924812_000'
p691
aS'MO_901878265111_000'
p692
aS'MO_316103028306_000'
p693
aS'MO_442423582015_000'
p694
aS'MO_316819210913_000'
p695
aS'MO_108261768999_000'
p696
aS'MO_700919228552_000'
p697
aS'MO_455312481241_000'
p698
aS'MO_239798310895_000'
p699
aS'MO_744511288866_000'
p700
aS'MO_493184254139_000'
p701
aS'MO_518094621084_000'
p702
aS'MO_755194011075_000'
p703
aS'MO_600159512501_000'
p704
aS'MO_443088661853_000'
p705
aS'MO_720708633671_000'
p706
aS'MO_139317284388_000'
p707
aS'MO_363942046028_000'
p708
aS'MO_591364543051_000'
p709
aS'MO_120147806651_000'
p710
aS'MO_628747299437_000'
p711
aS'MO_458135156770_000'
p712
aS'MO_869598322846_000'
p713
aS'MO_413096174198_000'
p714
aS'MO_757517947999_000'
p715
aS'MO_312812819820_000'
p716
aS'MO_419979047062_000'
p717
aS'MO_636800827386_000'
p718
aS'MO_111282160002_000'
p719
aS'MO_327618016925_000'
p720
aS'MO_567084701656_000'
p721
aS'MO_487557660006_000'
p722
aS'MO_555441266176_000'
p723
aS'MO_519810287704_000'
p724
aS'MO_515951734880_000'
p725
aS'MO_995569050607_000'
p726
aS'MO_384855478306_000'
p727
aS'MO_949895024524_000'
p728
aS'MO_234421096612_000'
p729
aS'MO_186700501237_000'
p730
aS'MO_424084697812_000'
p731
aS'MO_465072587715_000'
p732
aS'MO_861876187754_000'
p733
aS'MO_580027182657_000'
p734
aS'MO_283943067157_000'
p735
aS'MO_410089795551_000'
p736
aS'MO_841025443148_000'
p737
aS'MO_896728823616_000'
p738
aS'MO_500447240709_000'
p739
aS'MO_292218528305_000'
p740
aS'MO_264463422805_000'
p741
aS'MO_104993346160_000'
p742
aS'MO_516271550388_000'
p743
aS'MO_852609612685_000'
p744
aS'MO_683444512063_000'
p745
aS'MO_811363337455_000'
p746
aS'MO_826659588498_000'
p747
aS'MO_298303941683_000'
p748
aS'MO_350905543331_000'
p749
aS'MO_543226821903_000'
p750
aS'MO_568029228510_000'
p751
aS'MO_414897046003_000'
p752
aS'MO_196175296318_000'
p753
aS'MO_263596463544_000'
p754
aS'MO_877763318675_000'
p755
aS'MO_327493278876_000'
p756
aS'MO_963790811242_000'
p757
aS'MO_995437487146_000'
p758
aS'MO_455245208402_000'
p759
aS'MO_648883522941_000'
p760
aS'MO_599194395304_000'
p761
aS'MO_172592078251_000'
p762
aS'MO_116533416176_000'
p763
aS'MO_299008869402_000'
p764
aS'MO_587793032191_000'
p765
aS'MO_836949319091_000'
p766
aS'MO_985695393371_000'
p767
aS'MO_500275446661_000'
p768
aS'MO_988996736844_000'
p769
aS'MO_982196013366_000'
p770
aS'MO_586425475557_000'
p771
aS'MO_863889005716_000'
p772
aS'MO_875047934516_000'
p773
aS'MO_298976210066_000'
p774
aS'MO_777505281033_000'
p775
aS'MO_650300097891_000'
p776
aS'MO_429352629603_000'
p777
aS'MO_495564314744_000'
p778
aS'MO_409862495879_000'
p779
aS'MO_171596351146_000'
p780
aS'MO_873165701706_000'
p781
aS'MO_524480226180_000'
p782
aS'MO_464105252557_000'
p783
aS'MO_174436767207_000'
p784
aS'MO_604586616884_000'
p785
aS'MO_268821173937_000'
p786
aS'MO_941087522317_000'
p787
aS'MO_210862092838_000'
p788
aS'MO_558587835046_000'
p789
aS'MO_255331743773_000'
p790
aS'MO_763625007629_000'
p791
aS'MO_896487022476_000'
p792
aS'MO_628787448675_000'
p793
aS'MO_350434754889_000'
p794
aS'MO_625302983703_000'
p795
aS'MO_657045394473_000'
p796
aS'MO_448621350981_000'
p797
aS'MO_315824096715_000'
p798
aS'MO_170187993862_000'
p799
aS'MO_773109246599_000'
p800
aS'MO_618334696817_000'
p801
aS'MO_270967243524_000'
p802
aS'MO_928672609915_000'
p803
aS'MO_507486612739_000'
p804
aS'MO_760641894251_000'
p805
aS'MO_473777469761_000'
p806
aS'MO_931915025844_000'
p807
aS'MO_960384105955_000'
p808
aS'MO_817633076373_000'
p809
aS'MO_291591222160_000'
p810
aS'MO_801369549383_000'
p811
aS'MO_410816624783_000'
p812
aS'MO_938712887604_000'
p813
aS'MO_830662945056_000'
p814
aS'MO_234113598936_000'
p815
aS'MO_152247136044_000'
p816
aS'MO_981118089942_000'
p817
aS'MO_319690363950_000'
p818
aS'MO_483962642328_000'
p819
aS'MO_880284479942_000'
p820
aS'MO_384795390296_000'
p821
aS'MO_581600087403_000'
p822
aS'MO_167774984227_000'
p823
aS'MO_707353573670_000'
p824
aS'MO_655309378134_000'
p825
aS'MO_167147379935_000'
p826
aS'MO_724241743189_000'
p827
aS'MO_494766340911_000'
p828
aS'MO_684140913307_000'
p829
aS'MO_905811614268_000'
p830
aS'MO_765507420187_000'
p831
aS'MO_156802976605_000'
p832
aS'MO_376636622124_000'
p833
aS'MO_239282068955_000'
p834
aS'MO_579066522500_000'
p835
aS'MO_262193035046_000'
p836
aS'MO_423284099800_000'
p837
aS'MO_207463644329_000'
p838
aS'MO_918472938896_000'
p839
aS'MO_118822222873_000'
p840
aS'MO_422259880326_000'
p841
aS'MO_679070721098_000'
p842
aS'MO_494799919660_000'
p843
aS'MO_737468846859_000'
p844
aS'MO_795401219941_000'
p845
aS'MO_655071966965_000'
p846
aS'MO_134722855901_000'
p847
aS'MO_245957476423_000'
p848
aS'MO_562181381706_000'
p849
aS'MO_945828516621_000'
p850
aS'MO_895191174304_000'
p851
aS'MO_289928643464_000'
p852
aS'MO_346926463327_000'
p853
aS'MO_408358168329_000'
p854
aS'MO_175530054410_000'
p855
aS'MO_595886813631_000'
p856
aS'MO_404407139886_000'
p857
aS'MO_998278313017_000'
p858
aS'MO_964584148236_000'
p859
aS'MO_225995437866_000'
p860
aS'MO_591513006770_000'
p861
aS'MO_220166038569_000'
p862
aS'MO_297669237187_000'
p863
aS'MO_246973075279_000'
p864
aS'MO_287036318115_000'
p865
aS'MO_784629226466_000'
p866
aS'MO_727541804107_000'
p867
aS'MO_813672443816_000'
p868
aS'MO_284380294461_000'
p869
aS'MO_118928362032_000'
p870
aS'MO_853979044095_000'
p871
aS'MO_535658551916_000'
p872
aS'MO_511245392676_000'
p873
aS'MO_714415751646_000'
p874
aS'MO_436327256035_000'
p875
aS'MO_405874337559_000'
p876
aS'MO_180609045418_000'
p877
aS'MO_497694341352_000'
p878
aS'MO_552416277455_000'
p879
aS'MO_978045385159_000'
p880
aS'MO_668373593835_000'
p881
aS'MO_273318313996_000'
p882
aS'MO_959559264368_000'
p883
aS'MO_488567508156_000'
p884
aS'MO_645134450885_000'
p885
aS'MO_900164674300_000'
p886
aS'MO_562828627634_000'
p887
aS'MO_496854596731_000'
p888
aS'MO_210589042816_000'
p889
aS'MO_533597730515_000'
p890
aS'MO_656252631396_000'
p891
aS'MO_288503963737_000'
p892
aS'MO_532418735376_000'
p893
aS'MO_265192693592_000'
p894
aS'MO_585072086581_000'
p895
aS'MO_859434036032_000'
p896
aS'MO_311900745267_000'
p897
aS'MO_272772262226_000'
p898
aS'MO_188754977606_000'
p899
aS'MO_609019931472_000'
p900
aS'MO_671975385206_000'
p901
aS'MO_326686394973_000'
p902
aS'MO_973548720770_000'
p903
aS'MO_839101152315_000'
p904
aS'MO_641218889561_000'
p905
aS'MO_506013989723_000'
p906
aS'MO_264597306113_000'
p907
aS'MO_214568312758_000'
p908
aS'MO_506788038420_000'
p909
aS'MO_247813982170_000'
p910
aS'MO_702368964609_000'
p911
aS'MO_893964701445_000'
p912
aS'MO_537285965048_000'
p913
aS'MO_350010700958_000'
p914
a.